; Function Attrs: mustprogress nounwind uwtable
define dso_local i64 @_ZN5clang6Parser23ParseConstantExpressionEv(ptr noundef nonnull align 8 dereferenceable(2936) %0) local_unnamed_addr #0 align 2 {
_ZN5clang32EnterExpressionEvaluationContextD2Ev.exit:
  %1 = getelementptr inbounds nuw i8, ptr %0, i64 88
  %2 = load ptr, ptr %1, align 8
  tail call void @_ZN5clang4Sema31PushExpressionEvaluationContextENS0_27ExpressionEvaluationContextEPNS_4DeclENS0_33ExpressionEvaluationContextRecord14ExpressionKindE(ptr noundef nonnull align 8 dereferenceable(17560) %2, i32 noundef 4, ptr noundef null, i32 noundef 3) #18
  %3 = tail call i64 @_ZN5clang6Parser19ParseCastExpressionENS0_13CastParseKindEbNS0_13TypeCastStateEbPb(ptr noundef nonnull align 8 dereferenceable(2936) %0, i32 noundef 0, i1 noundef zeroext false, i32 noundef 0, i1 noundef zeroext false, ptr noundef null)
  %4 = tail call i64 @_ZN5clang6Parser26ParseRHSOfBinaryExpressionENS_12ActionResultIPNS_4ExprELb1EEENS_4prec5LevelE(ptr noundef nonnull align 8 dereferenceable(2936) %0, i64 %3, i32 noundef 3)
  %5 = load ptr, ptr %1, align 8
  %6 = tail call i64 @_ZN5clang4Sema23ActOnConstantExpressionENS_12ActionResultIPNS_4ExprELb1EEE(ptr noundef nonnull align 8 dereferenceable(17560) %5, i64 %4) #18
  tail call void @_ZN5clang4Sema30PopExpressionEvaluationContextEv(ptr noundef nonnull align 8 dereferenceable(17560) %2) #18
  ret i64 %6
}